; Function Attrs: mustprogress nofree norecurse nosync nounwind willreturn memory(argmem: read) uwtable
define noundef ptr @_ZNK6icu_7722FormattedStringBuilder5charsEv(ptr noundef nonnull readonly align 8 dereferenceable(136) %0) local_unnamed_addr #8 align 2 {
  %2 = load i8, ptr %0, align 8, !tbaa !3, !range !11, !noundef !12
  %3 = trunc nuw i8 %2 to i1
  %4 = getelementptr inbounds nuw i8, ptr %0, i64 8
  %5 = load ptr, ptr %4, align 8
  %6 = select i1 %3, ptr %5, ptr %4
  %7 = getelementptr inbounds nuw i8, ptr %0, i64 128
  %8 = load i32, ptr %7, align 8, !tbaa !9
  %9 = sext i32 %8 to i64
  %10 = getelementptr inbounds i16, ptr %6, i64 %9
  ret ptr %10
}